target datalayout = "e-m:e-p270:32:32-p271:32:32-p272:64:64-i64:64-i128:128-f80:128-n8:16:32:64-S128"
target triple = "x86_64-pc-linux-gnu"

%"struct.OpenImageIO::v3_1_0::ROI" = type { i32, i32, i32, i32, i32, i32, i32, i32 }
%class.anon.120 = type { ptr, ptr, ptr, ptr, ptr }

; Function Attrs: inlinehint mustprogress uwtable
define internal void @"_ZZN11OpenImageIO6v3_1_0L11deep_paste_ERNS0_8ImageBufERKS1_NS0_3ROIES5_iENK3$_0clES5_"(ptr noundef nonnull align 8 dereferenceable(40) %0, ptr noundef byval(%"struct.OpenImageIO::v3_1_0::ROI") align 8 %1) #11 align 2 {
  %3 = alloca ptr, align 8
  %4 = alloca i32, align 4
  %5 = alloca i32, align 4
  %6 = alloca i32, align 4
  %7 = alloca i32, align 4
  store ptr %0, ptr %3, align 8, !tbaa !172
  %8 = load ptr, ptr %3, align 8
  call void @llvm.lifetime.start.p0(i64 4, ptr %4) #3
  %9 = getelementptr inbounds nuw %"struct.OpenImageIO::v3_1_0::ROI", ptr %1, i32 0, i32 4
  %10 = load i32, ptr %9, align 8, !tbaa !16
  store i32 %10, ptr %4, align 4, !tbaa !10
  br label %11

11:                                               ; preds = %67, %2
  %12 = load i32, ptr %4, align 4, !tbaa !10
  %13 = getelementptr inbounds nuw %"struct.OpenImageIO::v3_1_0::ROI", ptr %1, i32 0, i32 5
  %14 = load i32, ptr %13, align 4, !tbaa !47
  %15 = icmp slt i32 %12, %14
  br i1 %15, label %17, label %16

16:                                               ; preds = %11
  store i32 2, ptr %5, align 4
  call void @llvm.lifetime.end.p0(i64 4, ptr %4) #3
  br label %70

17:                                               ; preds = %11
  call void @llvm.lifetime.start.p0(i64 4, ptr %6) #3
  %18 = getelementptr inbounds nuw %"struct.OpenImageIO::v3_1_0::ROI", ptr %1, i32 0, i32 2
  %19 = load i32, ptr %18, align 8, !tbaa !15
  store i32 %19, ptr %6, align 4, !tbaa !10
  br label %20

20:                                               ; preds = %63, %17
  %21 = load i32, ptr %6, align 4, !tbaa !10
  %22 = getelementptr inbounds nuw %"struct.OpenImageIO::v3_1_0::ROI", ptr %1, i32 0, i32 3
  %23 = load i32, ptr %22, align 4, !tbaa !46
  %24 = icmp slt i32 %21, %23
  br i1 %24, label %26, label %25

25:                                               ; preds = %20
  store i32 5, ptr %5, align 4
  call void @llvm.lifetime.end.p0(i64 4, ptr %6) #3
  br label %66

26:                                               ; preds = %20
  call void @llvm.lifetime.start.p0(i64 4, ptr %7) #3
  %27 = getelementptr inbounds nuw %"struct.OpenImageIO::v3_1_0::ROI", ptr %1, i32 0, i32 0
  %28 = load i32, ptr %27, align 8, !tbaa !13
  store i32 %28, ptr %7, align 4, !tbaa !10
  br label %29

29:                                               ; preds = %59, %26
  %30 = load i32, ptr %7, align 4, !tbaa !10
  %31 = getelementptr inbounds nuw %"struct.OpenImageIO::v3_1_0::ROI", ptr %1, i32 0, i32 1
  %32 = load i32, ptr %31, align 4, !tbaa !45
  %33 = icmp slt i32 %30, %32
  br i1 %33, label %35, label %34

34:                                               ; preds = %29
  store i32 8, ptr %5, align 4
  call void @llvm.lifetime.end.p0(i64 4, ptr %7) #3
  br label %62

35:                                               ; preds = %29
  %36 = getelementptr inbounds nuw %class.anon.120, ptr %8, i32 0, i32 0
  %37 = load ptr, ptr %36, align 8, !tbaa !826
  %38 = load i32, ptr %7, align 4, !tbaa !10
  %39 = getelementptr inbounds nuw %class.anon.120, ptr %8, i32 0, i32 1
  %40 = load ptr, ptr %39, align 8, !tbaa !828
  %41 = load i32, ptr %40, align 4, !tbaa !10
  %42 = add nsw i32 %38, %41
  %43 = load i32, ptr %6, align 4, !tbaa !10
  %44 = getelementptr inbounds nuw %class.anon.120, ptr %8, i32 0, i32 2
  %45 = load ptr, ptr %44, align 8, !tbaa !829
  %46 = load i32, ptr %45, align 4, !tbaa !10
  %47 = add nsw i32 %43, %46
  %48 = load i32, ptr %4, align 4, !tbaa !10
  %49 = getelementptr inbounds nuw %class.anon.120, ptr %8, i32 0, i32 3
  %50 = load ptr, ptr %49, align 8, !tbaa !830
  %51 = load i32, ptr %50, align 4, !tbaa !10
  %52 = add nsw i32 %48, %51
  %53 = getelementptr inbounds nuw %class.anon.120, ptr %8, i32 0, i32 4
  %54 = load ptr, ptr %53, align 8, !tbaa !831
  %55 = load i32, ptr %7, align 4, !tbaa !10
  %56 = load i32, ptr %6, align 4, !tbaa !10
  %57 = load i32, ptr %4, align 4, !tbaa !10
  %58 = call noundef zeroext i1 @_ZN11OpenImageIO6v3_1_08ImageBuf15copy_deep_pixelEiiiRKS1_iii(ptr noundef nonnull align 8 dereferenceable(16) %37, i32 noundef %42, i32 noundef %47, i32 noundef %52, ptr noundef nonnull align 8 dereferenceable(16) %54, i32 noundef %55, i32 noundef %56, i32 noundef %57)
  br label %59

59:                                               ; preds = %35
  %60 = load i32, ptr %7, align 4, !tbaa !10
  %61 = add nsw i32 %60, 1
  store i32 %61, ptr %7, align 4, !tbaa !10
  br label %29, !llvm.loop !832

62:                                               ; preds = %34
  br label %63

63:                                               ; preds = %62
  %64 = load i32, ptr %6, align 4, !tbaa !10
  %65 = add nsw i32 %64, 1
  store i32 %65, ptr %6, align 4, !tbaa !10
  br label %20, !llvm.loop !833

66:                                               ; preds = %25
  br label %67

67:                                               ; preds = %66
  %68 = load i32, ptr %4, align 4, !tbaa !10
  %69 = add nsw i32 %68, 1
  store i32 %69, ptr %4, align 4, !tbaa !10
  br label %11, !llvm.loop !834

70:                                               ; preds = %16
  ret void
}

; Function Attrs: mustprogress nounwind uwtable
define linkonce_odr noundef ptr @_ZNKSt9_Any_data9_M_accessEv(ptr noundef nonnull align 8 dereferenceable(16) %0) #8 comdat align 2 {
  %2 = alloca ptr, align 8
  store ptr %0, ptr %2, align 8, !tbaa !815
  %3 = load ptr, ptr %2, align 8
  %4 = getelementptr inbounds [16 x i8], ptr %3, i64 0, i64 0
  ret ptr %4
}

; Function Attrs: mustprogress uwtable
define internal void @"_ZSt13__invoke_implIvRZN11OpenImageIO6v3_1_0L11deep_paste_ERNS1_8ImageBufERKS2_NS1_3ROIES6_iE3$_0JS6_EET_St14__invoke_otherOT0_DpOT1_"(ptr noundef nonnull align 8 dereferenceable(40) %0, ptr noundef nonnull align 4 dereferenceable(32) %1) #6 {
  %3 = alloca ptr, align 8
  %4 = alloca ptr, align 8
  %5 = alloca %"struct.OpenImageIO::v3_1_0::ROI", align 8
  store ptr %0, ptr %3, align 8, !tbaa !172
  store ptr %1, ptr %4, align 8, !tbaa !43
  %6 = load ptr, ptr %3, align 8, !tbaa !172
  %7 = load ptr, ptr %4, align 8, !tbaa !43
  call void @llvm.memcpy.p0.p0.i64(ptr align 4 %5, ptr align 4 %7, i64 32, i1 false), !tbaa.struct !12
  call void @"_ZZN11OpenImageIO6v3_1_0L11deep_paste_ERNS0_8ImageBufERKS1_NS0_3ROIES5_iENK3$_0clES5_"(ptr noundef nonnull align 8 dereferenceable(40) %6, ptr noundef byval(%"struct.OpenImageIO::v3_1_0::ROI") align 8 %5)
  ret void
}

; Function Attrs: mustprogress nounwind uwtable
define internal noundef nonnull align 8 dereferenceable(8) ptr @"_ZNKSt9_Any_data9_M_accessIPZN11OpenImageIO6v3_1_0L11deep_paste_ERNS2_8ImageBufERKS3_NS2_3ROIES7_iE3$_0EERKT_v"(ptr noundef nonnull align 8 dereferenceable(16) %0) #8 align 2 {
  %2 = alloca ptr, align 8
  store ptr %0, ptr %2, align 8, !tbaa !815
  %3 = load ptr, ptr %2, align 8
  %4 = call noundef ptr @_ZNKSt9_Any_data9_M_accessEv(ptr noundef nonnull align 8 dereferenceable(16) %3) #3
  ret ptr %4
}

; Function Attrs: mustprogress uwtable
define internal void @"_ZSt10__invoke_rIvRZN11OpenImageIO6v3_1_0L11deep_paste_ERNS1_8ImageBufERKS2_NS1_3ROIES6_iE3$_0JS6_EENSt9enable_ifIX16is_invocable_r_vIT_T0_DpT1_EESA_E4typeEOSB_DpOSC_"(ptr noundef nonnull align 8 dereferenceable(40) %0, ptr noundef nonnull align 4 dereferenceable(32) %1) #6 {
  %3 = alloca ptr, align 8
  %4 = alloca ptr, align 8
  store ptr %0, ptr %3, align 8, !tbaa !172
  store ptr %1, ptr %4, align 8, !tbaa !43
  %5 = load ptr, ptr %3, align 8, !tbaa !172
  %6 = load ptr, ptr %4, align 8, !tbaa !43
  call void @"_ZSt13__invoke_implIvRZN11OpenImageIO6v3_1_0L11deep_paste_ERNS1_8ImageBufERKS2_NS1_3ROIES6_iE3$_0JS6_EET_St14__invoke_otherOT0_DpOT1_"(ptr noundef nonnull align 8 dereferenceable(40) %5, ptr noundef nonnull align 4 dereferenceable(32) %6)
  ret void
}

; Function Attrs: mustprogress nounwind uwtable
define internal noundef ptr @"_ZNSt14_Function_base13_Base_managerIZN11OpenImageIO6v3_1_0L11deep_paste_ERNS2_8ImageBufERKS3_NS2_3ROIES7_iE3$_0E14_M_get_pointerERKSt9_Any_data"(ptr noundef nonnull align 8 dereferenceable(16) %0) #8 align 2 {
  %2 = alloca ptr, align 8
  store ptr %0, ptr %2, align 8, !tbaa !815
  %3 = load ptr, ptr %2, align 8, !tbaa !815
  %4 = call noundef nonnull align 8 dereferenceable(8) ptr @"_ZNKSt9_Any_data9_M_accessIPZN11OpenImageIO6v3_1_0L11deep_paste_ERNS2_8ImageBufERKS3_NS2_3ROIES7_iE3$_0EERKT_v"(ptr noundef nonnull align 8 dereferenceable(16) %3) #3
  %5 = load ptr, ptr %4, align 8, !tbaa !172
  ret ptr %5
}

; Function Attrs: mustprogress uwtable
define internal void @"_ZNSt17_Function_handlerIFvN11OpenImageIO6v3_1_03ROIEEZNS1_L11deep_paste_ERNS1_8ImageBufERKS4_S2_S2_iE3$_0E9_M_invokeERKSt9_Any_dataOS2_"(ptr noundef nonnull align 8 dereferenceable(16) %0, ptr noundef nonnull align 4 dereferenceable(32) %1) #6 align 2 {
  %3 = alloca ptr, align 8
  %4 = alloca ptr, align 8
  store ptr %0, ptr %3, align 8, !tbaa !815
  store ptr %1, ptr %4, align 8, !tbaa !43
  %5 = load ptr, ptr %3, align 8, !tbaa !815
  %6 = call noundef ptr @"_ZNSt14_Function_base13_Base_managerIZN11OpenImageIO6v3_1_0L11deep_paste_ERNS2_8ImageBufERKS3_NS2_3ROIES7_iE3$_0E14_M_get_pointerERKSt9_Any_data"(ptr noundef nonnull align 8 dereferenceable(16) %5) #3
  %7 = load ptr, ptr %4, align 8, !tbaa !43
  call void @"_ZSt10__invoke_rIvRZN11OpenImageIO6v3_1_0L11deep_paste_ERNS1_8ImageBufERKS2_NS1_3ROIES6_iE3$_0JS6_EENSt9enable_ifIX16is_invocable_r_vIT_T0_DpT1_EESA_E4typeEOSB_DpOSC_"(ptr noundef nonnull align 8 dereferenceable(40) %6, ptr noundef nonnull align 4 dereferenceable(32) %7)
  ret void
}