; Function Attrs: mustprogress uwtable
define internal void @"_ZNSt17_Function_handlerIFvN11OpenImageIO6v3_1_03ROIEEZNS1_L11deep_paste_ERNS1_8ImageBufERKS4_S2_S2_iE3$_0E9_M_invokeERKSt9_Any_dataOS2_"(ptr noundef nonnull readonly align 8 captures(none) dereferenceable(16) %0, ptr noundef nonnull readonly align 4 captures(none) dereferenceable(32) %1) #5 align 2 {
  %.val = load ptr, ptr %0, align 8, !tbaa !45
  %.sroa.02.0.copyload.i.i = load i32, ptr %1, align 4, !tbaa !15
  %.sroa.2.0..sroa_idx.i.i = getelementptr inbounds nuw i8, ptr %1, i64 4
  %.sroa.2.0.copyload.i.i = load i32, ptr %.sroa.2.0..sroa_idx.i.i, align 4, !tbaa !15
  %.sroa.3.0..sroa_idx.i.i = getelementptr inbounds nuw i8, ptr %1, i64 8
  %.sroa.3.0.copyload.i.i = load i32, ptr %.sroa.3.0..sroa_idx.i.i, align 4, !tbaa !15
  %.sroa.43.0..sroa_idx.i.i = getelementptr inbounds nuw i8, ptr %1, i64 12
  %.sroa.43.0.copyload.i.i = load i32, ptr %.sroa.43.0..sroa_idx.i.i, align 4, !tbaa !15
  %.sroa.54.0..sroa_idx.i.i = getelementptr inbounds nuw i8, ptr %1, i64 16
  %.sroa.54.0.copyload.i.i = load i32, ptr %.sroa.54.0..sroa_idx.i.i, align 4, !tbaa !15
  %.sroa.65.0..sroa_idx.i.i = getelementptr inbounds nuw i8, ptr %1, i64 20
  %.sroa.65.0.copyload.i.i = load i32, ptr %.sroa.65.0..sroa_idx.i.i, align 4, !tbaa !15
  %3 = icmp slt i32 %.sroa.54.0.copyload.i.i, %.sroa.65.0.copyload.i.i
  br i1 %3, label %.lr.ph.i.i.i, label %"_ZSt10__invoke_rIvRZN11OpenImageIO6v3_1_0L11deep_paste_ERNS1_8ImageBufERKS2_NS1_3ROIES6_iE3$_0JS6_EENSt9enable_ifIX16is_invocable_r_vIT_T0_DpT1_EESA_E4typeEOSB_DpOSC_.exit"

.lr.ph.i.i.i:                                     ; preds = %2
  %4 = icmp slt i32 %.sroa.3.0.copyload.i.i, %.sroa.43.0.copyload.i.i
  %5 = getelementptr inbounds nuw i8, ptr %.val, i64 8
  %6 = getelementptr inbounds nuw i8, ptr %.val, i64 16
  %7 = getelementptr inbounds nuw i8, ptr %.val, i64 24
  %8 = getelementptr inbounds nuw i8, ptr %.val, i64 32
  %9 = icmp slt i32 %.sroa.02.0.copyload.i.i, %.sroa.2.0.copyload.i.i
  %or.cond.i.i.i = select i1 %4, i1 %9, i1 false
  br i1 %or.cond.i.i.i, label %.lr.ph17.us.us.i.i.i, label %"_ZSt10__invoke_rIvRZN11OpenImageIO6v3_1_0L11deep_paste_ERNS1_8ImageBufERKS2_NS1_3ROIES6_iE3$_0JS6_EENSt9enable_ifIX16is_invocable_r_vIT_T0_DpT1_EESA_E4typeEOSB_DpOSC_.exit"

.lr.ph17.us.us.i.i.i:                             ; preds = %.lr.ph.i.i.i, %._crit_edge18.split.us.us.us.i.i.i
  %.01319.us.us.i.i.i = phi i32 [ %25, %._crit_edge18.split.us.us.us.i.i.i ], [ %.sroa.54.0.copyload.i.i, %.lr.ph.i.i.i ]
  br label %.lr.ph.us.us.us.i.i.i

.lr.ph.us.us.us.i.i.i:                            ; preds = %._crit_edge.us.us.us.i.i.i, %.lr.ph17.us.us.i.i.i
  %.01215.us.us.us.i.i.i = phi i32 [ %.sroa.3.0.copyload.i.i, %.lr.ph17.us.us.i.i.i ], [ %24, %._crit_edge.us.us.us.i.i.i ]
  br label %10

10:                                               ; preds = %10, %.lr.ph.us.us.us.i.i.i
  %.014.us.us.us.i.i.i = phi i32 [ %.sroa.02.0.copyload.i.i, %.lr.ph.us.us.us.i.i.i ], [ %23, %10 ]
  %11 = load ptr, ptr %.val, align 8, !tbaa !614
  %12 = load ptr, ptr %5, align 8, !tbaa !616
  %13 = load i32, ptr %12, align 4, !tbaa !15
  %14 = add nsw i32 %13, %.014.us.us.us.i.i.i
  %15 = load ptr, ptr %6, align 8, !tbaa !617
  %16 = load i32, ptr %15, align 4, !tbaa !15
  %17 = add nsw i32 %16, %.01215.us.us.us.i.i.i
  %18 = load ptr, ptr %7, align 8, !tbaa !618
  %19 = load i32, ptr %18, align 4, !tbaa !15
  %20 = add nsw i32 %19, %.01319.us.us.i.i.i
  %21 = load ptr, ptr %8, align 8, !tbaa !619
  %22 = tail call noundef zeroext i1 @_ZN11OpenImageIO6v3_1_08ImageBuf15copy_deep_pixelEiiiRKS1_iii(ptr noundef nonnull align 8 dereferenceable(16) %11, i32 noundef %14, i32 noundef %17, i32 noundef %20, ptr noundef nonnull align 8 dereferenceable(16) %21, i32 noundef %.014.us.us.us.i.i.i, i32 noundef %.01215.us.us.us.i.i.i, i32 noundef %.01319.us.us.i.i.i)
  %23 = add i32 %.014.us.us.us.i.i.i, 1
  %exitcond.not.i.i.i = icmp eq i32 %23, %.sroa.2.0.copyload.i.i
  br i1 %exitcond.not.i.i.i, label %._crit_edge.us.us.us.i.i.i, label %10, !llvm.loop !620

._crit_edge.us.us.us.i.i.i:                       ; preds = %10
  %24 = add i32 %.01215.us.us.us.i.i.i, 1
  %exitcond26.not.i.i.i = icmp eq i32 %24, %.sroa.43.0.copyload.i.i
  br i1 %exitcond26.not.i.i.i, label %._crit_edge18.split.us.us.us.i.i.i, label %.lr.ph.us.us.us.i.i.i, !llvm.loop !621

._crit_edge18.split.us.us.us.i.i.i:               ; preds = %._crit_edge.us.us.us.i.i.i
  %25 = add i32 %.01319.us.us.i.i.i, 1
  %exitcond27.not.i.i.i = icmp eq i32 %25, %.sroa.65.0.copyload.i.i
  br i1 %exitcond27.not.i.i.i, label %"_ZSt10__invoke_rIvRZN11OpenImageIO6v3_1_0L11deep_paste_ERNS1_8ImageBufERKS2_NS1_3ROIES6_iE3$_0JS6_EENSt9enable_ifIX16is_invocable_r_vIT_T0_DpT1_EESA_E4typeEOSB_DpOSC_.exit", label %.lr.ph17.us.us.i.i.i, !llvm.loop !622

"_ZSt10__invoke_rIvRZN11OpenImageIO6v3_1_0L11deep_paste_ERNS1_8ImageBufERKS2_NS1_3ROIES6_iE3$_0JS6_EENSt9enable_ifIX16is_invocable_r_vIT_T0_DpT1_EESA_E4typeEOSB_DpOSC_.exit": ; preds = %._crit_edge18.split.us.us.us.i.i.i, %2, %.lr.ph.i.i.i
  ret void
}